; Function Attrs: mustprogress nounwind uwtable
define noundef double @_ZN11OpenImageIO6v3_1_07Strutil4stodEPKcPm(ptr noundef %0, ptr noundef writeonly %1) local_unnamed_addr #15 {
  %3 = alloca ptr, align 8
  %.not = icmp eq ptr %0, null
  br i1 %.not, label %13, label %4

4:                                                ; preds = %2
  call void @llvm.lifetime.start.p0(i64 8, ptr nonnull %3) #16
  %5 = load ptr, ptr @_ZN11OpenImageIO6v3_1_012_GLOBAL__N_15c_locE, align 8, !tbaa !232
  %6 = call noundef double @strtod_l(ptr noundef nonnull %0, ptr noundef nonnull %3, ptr noundef %5) #16
  %7 = load ptr, ptr %3, align 8, !tbaa !13
  %.not15 = icmp ne ptr %7, %0
  %.not16 = icmp ne ptr %1, null
  %or.cond.not = and i1 %.not16, %.not15
  br i1 %or.cond.not, label %8, label %12

8:                                                ; preds = %4
  %9 = ptrtoint ptr %7 to i64
  %10 = ptrtoint ptr %0 to i64
  %11 = sub i64 %9, %10
  store i64 %11, ptr %1, align 8, !tbaa !86
  br label %12

12:                                               ; preds = %4, %8
  call void @llvm.lifetime.end.p0(i64 8, ptr nonnull %3) #16
  br i1 %.not15, label %15, label %13

13:                                               ; preds = %12, %2
  %.not17 = icmp eq ptr %1, null
  br i1 %.not17, label %15, label %14

14:                                               ; preds = %13
  store i64 0, ptr %1, align 8, !tbaa !86
  br label %15

15:                                               ; preds = %13, %14, %12
  %.1 = phi double [ %6, %12 ], [ 0.000000e+00, %14 ], [ 0.000000e+00, %13 ]
  ret double %.1
}